; Function Attrs: mustprogress nounwind uwtable
define dso_local noundef range(i32 1, 42) i32 @_ZN5clang8SemaObjC30PrepareCastToObjCObjectPointerERNS_12ActionResultIPNS_4ExprELb1EEE(ptr nocapture noundef nonnull readonly align 8 dereferenceable(328) %0, ptr noundef nonnull align 8 dereferenceable(8) %1) local_unnamed_addr #0 align 2 {
  %3 = load i64, ptr %1, align 8
  %4 = and i64 %3, -2
  %5 = inttoptr i64 %4 to ptr
  %6 = getelementptr inbounds nuw i8, ptr %5, i64 8
  %.sroa.0.0.copyload.i = load i64, ptr %6, align 8
  %7 = and i64 %.sroa.0.0.copyload.i, -16
  %8 = inttoptr i64 %7 to ptr
  %9 = load ptr, ptr %8, align 16
  %10 = getelementptr inbounds nuw i8, ptr %9, i64 8
  %.sroa.0.0.copyload.i.i.i.i = load i64, ptr %10, align 8
  %11 = and i64 %.sroa.0.0.copyload.i.i.i.i, -16
  %12 = inttoptr i64 %11 to ptr
  %13 = load ptr, ptr %12, align 16
  %14 = getelementptr inbounds nuw i8, ptr %13, i64 16
  %15 = load i8, ptr %14, align 16
  switch i8 %15, label %.fold.split [
    i8 33, label %18
    i8 11, label %16
  ]

16:                                               ; preds = %2
  %17 = load ptr, ptr %0, align 8
  tail call void @_ZN5clang4Sema22maybeExtendBlockObjectERNS_12ActionResultIPNS_4ExprELb1EEE(ptr noundef nonnull align 8 dereferenceable(17560) %17, ptr noundef nonnull align 8 dereferenceable(8) %1) #18
  br label %18

.fold.split:                                      ; preds = %2
  br label %18

18:                                               ; preds = %2, %.fold.split, %16
  %.0 = phi i32 [ 41, %16 ], [ 1, %2 ], [ 40, %.fold.split ]
  ret i32 %.0
}